target datalayout = "e-m:e-p270:32:32-p271:32:32-p272:64:64-i64:64-i128:128-f80:128-n8:16:32:64-S128"
target triple = "x86_64-pc-linux-gnu"

%class.anon = type { i8 }
%"struct.interaction_const_t::SoftCoreParameters" = type { float, float, i32, float, float, i32, float, float, float }
%struct.t_lambda = type { i32, double, i32, double, i32, i32, %"struct.gmx::EnumerationArray", i32, i32, i32, float, i32, float, float, float, i8, i32, float, float, float, %"struct.gmx::EnumerationArray.0", i32, i32, i32, double }
%"struct.gmx::EnumerationArray" = type { [7 x %"class.std::vector"] }
%"class.std::vector" = type { %"struct.std::_Vector_base" }
%"struct.std::_Vector_base" = type { %"struct.std::_Vector_base<double, std::allocator<double>>::_Vector_impl" }
%"struct.std::_Vector_base<double, std::allocator<double>>::_Vector_impl" = type { %"struct.std::_Vector_base<double, std::allocator<double>>::_Vector_impl_data" }
%"struct.std::_Vector_base<double, std::allocator<double>>::_Vector_impl_data" = type { ptr, ptr, ptr }
%"struct.gmx::EnumerationArray.0" = type { [7 x i8] }

@.str = private unnamed_addr constant [26 x i8] c"fepvals.sc_r_power == 6.0\00", align 1
@.str.1 = private unnamed_addr constant [36 x i8] c"We only support soft-core r-power 6\00", align 1
@"__PRETTY_FUNCTION__._ZZN19interaction_const_t18SoftCoreParametersC1ERK8t_lambdaENK3$_0clEv" = private unnamed_addr constant [122 x i8] c"auto interaction_const_t::SoftCoreParameters::SoftCoreParameters(const t_lambda &)::(anonymous class)::operator()() const\00", align 1
@.str.2 = private unnamed_addr constant [135 x i8] c"generated/home/dtcxzyw/WorkSpace/Projects/compilers/llvm-opt-benchmark/bench/gromacs/gromacs/src/gromacs/mdtypes/interaction_const.cpp\00", align 1

; Function Attrs: mustprogress nounwind uwtable
define linkonce_odr noundef float @_ZN3gmx6squareIfEET_S1_(float noundef %0) #3 comdat {
  %2 = alloca float, align 4
  store float %0, ptr %2, align 4, !tbaa !44
  %3 = load float, ptr %2, align 4, !tbaa !44
  %4 = load float, ptr %2, align 4, !tbaa !44
  %5 = fmul float %3, %4
  ret float %5
}

; Function Attrs: mustprogress nounwind uwtable
define linkonce_odr noundef float @_ZN3gmx6power3IfEET_S1_(float noundef %0) #3 comdat {
  %2 = alloca float, align 4
  store float %0, ptr %2, align 4, !tbaa !44
  %3 = load float, ptr %2, align 4, !tbaa !44
  %4 = load float, ptr %2, align 4, !tbaa !44
  %5 = call noundef float @_ZN3gmx6squareIfEET_S1_(float noundef %4)
  %6 = fmul float %3, %5
  ret float %6
}

; Function Attrs: inlinehint mustprogress uwtable
define internal void @"_ZZN19interaction_const_t18SoftCoreParametersC1ERK8t_lambdaENK3$_0clEv"(ptr noundef nonnull align 1 dereferenceable(1) %0) #2 align 2 {
  %2 = alloca ptr, align 8
  store ptr %0, ptr %2, align 8, !tbaa !45
  call void @_ZN3gmx8internal13assertHandlerEPKcS2_S2_S2_i(ptr noundef @.str, ptr noundef @.str.1, ptr noundef @"__PRETTY_FUNCTION__._ZZN19interaction_const_t18SoftCoreParametersC1ERK8t_lambdaENK3$_0clEv", ptr noundef @.str.2, i32 noundef 71) #16
  unreachable
}

; Function Attrs: mustprogress uwtable
define linkonce_odr noundef float @_ZN3gmx6power6IfEET_S1_(float noundef %0) #0 comdat {
  %2 = alloca float, align 4
  store float %0, ptr %2, align 4, !tbaa !44
  %3 = load float, ptr %2, align 4, !tbaa !44
  %4 = call noundef float @_ZN3gmx6power3IfEET_S1_(float noundef %3)
  %5 = call noundef float @_ZN3gmx6squareIfEET_S1_(float noundef %4)
  ret float %5
}

; Function Attrs: mustprogress uwtable
define void @_ZN19interaction_const_t18SoftCoreParametersC2ERK8t_lambda(ptr noundef nonnull align 4 dereferenceable(36) %0, ptr noundef nonnull align 8 dereferenceable(288) %1) unnamed_addr #0 align 2 {
  %3 = alloca ptr, align 8
  %4 = alloca ptr, align 8
  %5 = alloca %class.anon, align 1
  store ptr %0, ptr %3, align 8, !tbaa !4
  store ptr %1, ptr %4, align 8, !tbaa !9
  %6 = load ptr, ptr %3, align 8
  %7 = getelementptr inbounds nuw %"struct.interaction_const_t::SoftCoreParameters", ptr %6, i32 0, i32 0
  %8 = load ptr, ptr %4, align 8, !tbaa !9
  %9 = getelementptr inbounds nuw %struct.t_lambda, ptr %8, i32 0, i32 10
  %10 = load float, ptr %9, align 4, !tbaa !11
  store float %10, ptr %7, align 4, !tbaa !23
  %11 = getelementptr inbounds nuw %"struct.interaction_const_t::SoftCoreParameters", ptr %6, i32 0, i32 1
  %12 = load ptr, ptr %4, align 8, !tbaa !9
  %13 = getelementptr inbounds nuw %struct.t_lambda, ptr %12, i32 0, i32 15
  %14 = load i8, ptr %13, align 8, !tbaa !25, !range !26, !noundef !27
  %15 = trunc i8 %14 to i1
  br i1 %15, label %16, label %20

16:                                               ; preds = %2
  %17 = load ptr, ptr %4, align 8, !tbaa !9
  %18 = getelementptr inbounds nuw %struct.t_lambda, ptr %17, i32 0, i32 10
  %19 = load float, ptr %18, align 4, !tbaa !11
  br label %21

20:                                               ; preds = %2
  br label %21

21:                                               ; preds = %20, %16
  %22 = phi float [ %19, %16 ], [ 0.000000e+00, %20 ]
  store float %22, ptr %11, align 4, !tbaa !28
  %23 = getelementptr inbounds nuw %"struct.interaction_const_t::SoftCoreParameters", ptr %6, i32 0, i32 2
  %24 = load ptr, ptr %4, align 8, !tbaa !9
  %25 = getelementptr inbounds nuw %struct.t_lambda, ptr %24, i32 0, i32 11
  %26 = load i32, ptr %25, align 8, !tbaa !29
  store i32 %26, ptr %23, align 4, !tbaa !30
  %27 = getelementptr inbounds nuw %"struct.interaction_const_t::SoftCoreParameters", ptr %6, i32 0, i32 3
  %28 = load ptr, ptr %4, align 8, !tbaa !9
  %29 = getelementptr inbounds nuw %struct.t_lambda, ptr %28, i32 0, i32 13
  %30 = load float, ptr %29, align 8, !tbaa !31
  %31 = call noundef float @_ZN3gmx6power6IfEET_S1_(float noundef %30)
  store float %31, ptr %27, align 4, !tbaa !32
  %32 = getelementptr inbounds nuw %"struct.interaction_const_t::SoftCoreParameters", ptr %6, i32 0, i32 4
  %33 = load ptr, ptr %4, align 8, !tbaa !9
  %34 = getelementptr inbounds nuw %struct.t_lambda, ptr %33, i32 0, i32 15
  %35 = load i8, ptr %34, align 8, !tbaa !25, !range !26, !noundef !27
  %36 = trunc i8 %35 to i1
  br i1 %36, label %37, label %42

37:                                               ; preds = %21
  %38 = load ptr, ptr %4, align 8, !tbaa !9
  %39 = getelementptr inbounds nuw %struct.t_lambda, ptr %38, i32 0, i32 14
  %40 = load float, ptr %39, align 4, !tbaa !33
  %41 = call noundef float @_ZN3gmx6power6IfEET_S1_(float noundef %40)
  br label %43

42:                                               ; preds = %21
  br label %43

43:                                               ; preds = %42, %37
  %44 = phi float [ %41, %37 ], [ 0.000000e+00, %42 ]
  store float %44, ptr %32, align 4, !tbaa !34
  %45 = getelementptr inbounds nuw %"struct.interaction_const_t::SoftCoreParameters", ptr %6, i32 0, i32 5
  %46 = load ptr, ptr %4, align 8, !tbaa !9
  %47 = getelementptr inbounds nuw %struct.t_lambda, ptr %46, i32 0, i32 16
  %48 = load i32, ptr %47, align 4, !tbaa !35
  store i32 %48, ptr %45, align 4, !tbaa !36
  %49 = getelementptr inbounds nuw %"struct.interaction_const_t::SoftCoreParameters", ptr %6, i32 0, i32 6
  %50 = load ptr, ptr %4, align 8, !tbaa !9
  %51 = getelementptr inbounds nuw %struct.t_lambda, ptr %50, i32 0, i32 17
  %52 = load float, ptr %51, align 8, !tbaa !37
  store float %52, ptr %49, align 4, !tbaa !38
  %53 = getelementptr inbounds nuw %"struct.interaction_const_t::SoftCoreParameters", ptr %6, i32 0, i32 7
  %54 = load ptr, ptr %4, align 8, !tbaa !9
  %55 = getelementptr inbounds nuw %struct.t_lambda, ptr %54, i32 0, i32 18
  %56 = load float, ptr %55, align 4, !tbaa !39
  store float %56, ptr %53, align 4, !tbaa !40
  %57 = getelementptr inbounds nuw %"struct.interaction_const_t::SoftCoreParameters", ptr %6, i32 0, i32 8
  %58 = load ptr, ptr %4, align 8, !tbaa !9
  %59 = getelementptr inbounds nuw %struct.t_lambda, ptr %58, i32 0, i32 19
  %60 = load float, ptr %59, align 8, !tbaa !41
  %61 = call noundef float @_ZN3gmx6power6IfEET_S1_(float noundef %60)
  store float %61, ptr %57, align 4, !tbaa !42
  %62 = load ptr, ptr %4, align 8, !tbaa !9
  %63 = getelementptr inbounds nuw %struct.t_lambda, ptr %62, i32 0, i32 12
  %64 = load float, ptr %63, align 4, !tbaa !43
  %65 = fpext float %64 to double
  %66 = fcmp oeq double %65, 6.000000e+00
  call void @llvm.lifetime.start.p0(i64 1, ptr %5) #15
  br i1 %66, label %67, label %68

67:                                               ; preds = %43
  br label %69

68:                                               ; preds = %43
  call void @"_ZZN19interaction_const_t18SoftCoreParametersC1ERK8t_lambdaENK3$_0clEv"(ptr noundef nonnull align 1 dereferenceable(1) %5)
  br label %69

69:                                               ; preds = %68, %67
  call void @llvm.lifetime.end.p0(i64 1, ptr %5) #15
  ret void
}