; Function Attrs: mustprogress uwtable
define void @_ZN19interaction_const_t18SoftCoreParametersC2ERK8t_lambda(ptr noundef nonnull writeonly align 4 captures(none) dereferenceable(36) initializes((0, 36)) %0, ptr noundef nonnull readonly align 8 captures(none) dereferenceable(288) %1) unnamed_addr #0 align 2 {
  %3 = getelementptr inbounds nuw i8, ptr %1, i64 220
  %4 = load float, ptr %3, align 4, !tbaa !4
  store float %4, ptr %0, align 4, !tbaa !18
  %5 = getelementptr inbounds nuw i8, ptr %0, i64 4
  %6 = getelementptr inbounds nuw i8, ptr %1, i64 240
  %7 = load i8, ptr %6, align 8, !tbaa !20, !range !21, !noundef !22
  %8 = trunc nuw i8 %7 to i1
  %spec.select = select i1 %8, float %4, float 0.000000e+00
  store float %spec.select, ptr %5, align 4, !tbaa !23
  %9 = getelementptr inbounds nuw i8, ptr %0, i64 8
  %10 = getelementptr inbounds nuw i8, ptr %1, i64 224
  %11 = load i32, ptr %10, align 8, !tbaa !24
  store i32 %11, ptr %9, align 4, !tbaa !25
  %12 = getelementptr inbounds nuw i8, ptr %0, i64 12
  %13 = getelementptr inbounds nuw i8, ptr %1, i64 232
  %14 = load float, ptr %13, align 8, !tbaa !26
  %15 = fmul float %14, %14
  %16 = fmul float %14, %15
  %17 = fmul float %16, %16
  store float %17, ptr %12, align 4, !tbaa !27
  %18 = getelementptr inbounds nuw i8, ptr %0, i64 16
  %19 = getelementptr inbounds nuw i8, ptr %1, i64 236
  %20 = load float, ptr %19, align 4
  %21 = fmul float %20, %20
  %22 = fmul float %20, %21
  %23 = fmul float %22, %22
  %24 = select i1 %8, float %23, float 0.000000e+00
  store float %24, ptr %18, align 4, !tbaa !28
  %25 = getelementptr inbounds nuw i8, ptr %0, i64 20
  %26 = getelementptr inbounds nuw i8, ptr %1, i64 244
  %27 = load i32, ptr %26, align 4, !tbaa !29
  store i32 %27, ptr %25, align 4, !tbaa !30
  %28 = getelementptr inbounds nuw i8, ptr %0, i64 24
  %29 = getelementptr inbounds nuw i8, ptr %1, i64 248
  %30 = load float, ptr %29, align 8, !tbaa !31
  store float %30, ptr %28, align 4, !tbaa !32
  %31 = getelementptr inbounds nuw i8, ptr %0, i64 28
  %32 = getelementptr inbounds nuw i8, ptr %1, i64 252
  %33 = load float, ptr %32, align 4, !tbaa !33
  store float %33, ptr %31, align 4, !tbaa !34
  %34 = getelementptr inbounds nuw i8, ptr %0, i64 32
  %35 = getelementptr inbounds nuw i8, ptr %1, i64 256
  %36 = load float, ptr %35, align 8, !tbaa !35
  %37 = fmul float %36, %36
  %38 = fmul float %36, %37
  %39 = fmul float %38, %38
  store float %39, ptr %34, align 4, !tbaa !36
  %40 = getelementptr inbounds nuw i8, ptr %1, i64 228
  %41 = load float, ptr %40, align 4, !tbaa !37
  %42 = fcmp oeq float %41, 6.000000e+00
  br i1 %42, label %44, label %43

43:                                               ; preds = %2
  tail call void @_ZN3gmx8internal13assertHandlerEPKcS2_S2_S2_i(ptr noundef nonnull @.str, ptr noundef nonnull @.str.1, ptr noundef nonnull @"__PRETTY_FUNCTION__._ZZN19interaction_const_t18SoftCoreParametersC1ERK8t_lambdaENK3$_0clEv", ptr noundef nonnull @.str.2, i32 noundef 71) #20
  unreachable

44:                                               ; preds = %2
  ret void
}